Certificate:
    Data:
        Version: 3 (0x2)
        Serial Number:
            62:97:b7:60:6a:92:82:aa:4e:12:99:a3:2b:3f:94:2b:7f:8a:5a:db
        Signature Algorithm: sha256WithRSAEncryption
        Issuer: C=SV, ST=Santa Ana, O=Universidad de El Salvador, OU=TIUES, CN=San Maicol
        Validity
            Not Before: Mar  9 21:12:01 2020 GMT
            Not After : Mar  9 21:12:01 2023 GMT
        Subject: C=SV, ST=Santa Ana, O=Universidad de El Salvador, OU=TIUES, CN=San Maicol
        Subject Public Key Info:
            Public Key Algorithm: rsaEncryption
                RSA Public-Key: (4096 bit)
                Modulus:
                    00:c7:bf:ea:95:77:87:38:17:75:9d:80:95:54:64:
                    5e:e5:97:8c:07:db:45:cd:d4:42:58:c9:c4:a1:25:
                    09:e5:fa:b9:95:5f:0a:af:c6:92:8f:fe:ac:12:56:
                    0e:25:bb:5a:15:c5:9e:0d:02:00:21:80:70:9e:60:
                    f3:e8:7a:f6:2e:29:61:b8:68:d7:48:80:89:69:46:
                    0d:88:0b:ce:3b:7c:3e:b6:05:c9:a7:c0:c1:4b:0e:
                    76:89:ee:62:6c:b6:f0:cf:bd:46:75:c5:30:b3:c0:
                    c0:fe:e9:f0:04:db:fb:d9:05:7b:fe:07:66:99:7e:
                    f8:c6:4e:7b:ec:83:30:05:50:7a:9e:fb:66:08:4e:
                    87:b8:73:bd:4b:87:a6:a4:22:b1:c7:35:a5:1b:d0:
                    43:5a:6d:c4:d8:ca:05:9d:5a:b1:72:53:fc:6c:5c:
                    52:5d:5b:39:3c:55:5b:85:a8:4a:67:2e:10:6c:23:
                    cf:ce:e2:63:8f:29:54:9b:11:05:2c:f9:4d:10:bd:
                    01:31:7b:41:1d:94:05:0e:e9:d8:7b:8f:ae:74:7c:
                    0d:d9:7a:a1:54:d7:0a:e3:1b:fb:43:97:4b:60:d1:
                    5b:e0:8f:45:6c:af:de:02:f7:73:c4:bd:48:05:52:
                    95:a7:9f:d2:03:77:54:78:df:6a:a5:34:51:fd:1a:
                    2e:ca:3a:da:54:49:c6:b7:6f:c4:90:5f:73:91:00:
                    7d:6c:9d:69:ea:09:64:15:b9:50:06:f4:ed:cf:f6:
                    a0:d8:a7:8b:1c:71:fc:64:ec:50:98:a9:d8:60:04:
                    cd:60:4c:e1:2b:aa:fe:be:06:69:73:9a:f8:7c:3f:
                    bd:a6:db:6b:ab:c3:9b:1f:74:43:6b:1f:43:c9:6d:
                    a9:58:8d:7b:29:34:f6:0b:78:be:c1:21:e3:90:a0:
                    54:cc:b2:4d:94:df:0e:23:24:0e:c8:1f:68:fd:b3:
                    68:bc:0e:34:09:89:a6:1c:f4:84:e6:93:c7:51:d9:
                    00:eb:a2:35:f0:25:a8:6e:ac:4d:e0:be:88:cf:69:
                    0d:1b:79:b8:f5:a9:89:fa:b9:af:e0:2a:e0:4f:14:
                    f4:1f:1c:90:16:86:b2:b3:eb:81:73:c1:cc:e9:bb:
                    06:04:77:20:f2:65:37:82:a5:4d:5b:2d:20:9a:ed:
                    91:c8:8b:7a:f6:47:8f:4d:cf:d9:38:d9:3d:23:e3:
                    dd:d0:da:0f:33:e5:37:4b:42:39:66:ad:18:67:e4:
                    74:06:fa:95:a2:66:f8:2e:72:24:97:df:79:a8:1f:
                    14:77:13:74:f1:ff:ae:8a:a2:8d:d4:bb:82:14:0a:
                    1b:f6:ae:af:a3:1a:93:ac:fa:77:0f:b0:14:32:71:
                    2b:08:61
                Exponent: 65537 (0x10001)
        X509v3 extensions:
            X509v3 Subject Key Identifier: 
                AF:78:96:BC:E1:1B:53:98:DA:7E:F4:2B:06:10:D1:AD:6F:3E:CC:03
            X509v3 Authority Key Identifier: 
                keyid:AF:78:96:BC:E1:1B:53:98:DA:7E:F4:2B:06:10:D1:AD:6F:3E:CC:03

            X509v3 Basic Constraints: critical
                CA:TRUE
    Signature Algorithm: sha256WithRSAEncryption
         2c:d2:cb:b5:98:cc:21:bb:c9:10:3c:22:8d:7d:c7:18:d2:ab:
         68:33:2e:1f:eb:fe:f7:13:d5:b0:b6:15:0f:1e:d4:33:0b:8c:
         10:b8:84:a1:8d:e5:bc:2a:72:0d:d2:c3:4c:51:90:c3:d4:a4:
         23:56:9e:31:b6:49:51:6c:02:69:32:5b:f1:7a:42:3e:7c:e6:
         b2:81:c3:ee:52:5d:2b:8c:9b:39:34:48:c3:da:dc:66:80:b6:
         22:4d:ca:6e:22:c0:d6:ab:2b:92:42:e7:d2:95:d5:43:8e:0e:
         cd:8d:24:05:a5:32:91:08:7f:ab:cf:7c:ac:98:e4:89:31:b8:
         bd:7f:a5:f0:3f:0a:3d:8f:30:38:cf:8b:e8:aa:fd:c2:fa:31:
         55:79:fb:3c:ec:e5:0d:d5:48:75:fd:f5:f7:67:cc:b9:7a:7e:
         01:8f:62:cf:6c:7a:93:61:76:2f:8b:d2:18:21:ca:b5:ef:c0:
         50:fc:89:85:0c:c7:45:c2:14:45:a1:52:88:a7:8f:43:f6:f1:
         f3:a8:c8:2c:70:14:70:d0:6a:63:4d:07:1c:4f:85:91:b9:64:
         17:b5:0b:bb:9d:0e:99:6d:c0:a1:1a:40:df:9c:18:5e:ad:2f:
         f1:39:20:4a:16:9f:71:36:ae:99:c6:f6:c6:e4:af:bb:a7:7a:
         38:29:a9:18:16:2c:69:d1:0b:26:89:9e:4b:f4:70:de:3b:1c:
         6d:ec:a1:2f:35:db:77:f9:15:71:2e:cc:89:be:f1:94:51:f6:
         39:ff:3f:72:89:bf:c3:ea:94:dd:11:07:80:88:00:2e:9a:96:
         f2:67:13:81:af:6d:7a:f0:de:f5:20:24:9e:53:54:d3:c5:a7:
         f9:15:a3:cf:41:ce:57:cf:36:fa:77:97:26:f9:47:23:f2:98:
         ed:58:de:8a:8c:1a:e2:56:fb:5a:4f:65:57:9c:bc:6d:a3:00:
         3a:d4:27:e2:18:f2:65:b0:de:32:d2:24:dd:66:a1:df:cf:e2:
         ca:12:85:71:fb:3c:eb:a7:48:d8:f8:dd:6d:9e:dd:88:5c:fc:
         f1:63:6c:c0:33:53:9e:4b:e5:20:7f:ff:5a:19:5c:86:77:bc:
         75:a2:13:65:75:82:10:4c:56:28:61:dc:37:da:ac:03:4f:df:
         3b:a7:23:bf:5b:13:91:75:7b:a5:d4:6b:ec:6c:a3:48:48:e1:
         1f:ca:b9:89:d7:4f:71:71:cb:87:ec:75:c7:6c:2b:b8:1d:4a:
         3e:30:0c:78:c6:82:8c:44:23:e0:7c:fd:bc:9d:ee:f8:f1:80:
         f8:93:d9:21:8c:a4:65:3e:a5:b2:5d:c2:aa:69:7d:20:69:40:
         a6:17:51:02:61:ba:f0:65
-----BEGIN CERTIFICATE-----
MIIFtzCCA5+gAwIBAgIUYpe3YGqSgqpOEpmjKz+UK3+KWtswDQYJKoZIhvcNAQEL
BQAwazELMAkGA1UEBhMCU1YxEjAQBgNVBAgMCVNhbnRhIEFuYTEjMCEGA1UECgwa
VW5pdmVyc2lkYWQgZGUgRWwgU2FsdmFkb3IxDjAMBgNVBAsMBVRJVUVTMRMwEQYD
VQQDDApTYW4gTWFpY29sMB4XDTIwMDMwOTIxMTIwMVoXDTIzMDMwOTIxMTIwMVow
azELMAkGA1UEBhMCU1YxEjAQBgNVBAgMCVNhbnRhIEFuYTEjMCEGA1UECgwaVW5p
dmVyc2lkYWQgZGUgRWwgU2FsdmFkb3IxDjAMBgNVBAsMBVRJVUVTMRMwEQYDVQQD
DApTYW4gTWFpY29sMIICIjANBgkqhkiG9w0BAQEFAAOCAg8AMIICCgKCAgEAx7/q
lXeHOBd1nYCVVGRe5ZeMB9tFzdRCWMnEoSUJ5fq5lV8Kr8aSj/6sElYOJbtaFcWe
DQIAIYBwnmDz6Hr2LilhuGjXSICJaUYNiAvOO3w+tgXJp8DBSw52ie5ibLbwz71G
dcUws8DA/unwBNv72QV7/gdmmX74xk577IMwBVB6nvtmCE6HuHO9S4empCKxxzWl
G9BDWm3E2MoFnVqxclP8bFxSXVs5PFVbhahKZy4QbCPPzuJjjylUmxEFLPlNEL0B
MXtBHZQFDunYe4+udHwN2XqhVNcK4xv7Q5dLYNFb4I9FbK/eAvdzxL1IBVKVp5/S
A3dUeN9qpTRR/RouyjraVEnGt2/EkF9zkQB9bJ1p6glkFblQBvTtz/ag2KeLHHH8
ZOxQmKnYYATNYEzhK6r+vgZpc5r4fD+9pttrq8ObH3RDax9DyW2pWI17KTT2C3i+
wSHjkKBUzLJNlN8OIyQOyB9o/bNovA40CYmmHPSE5pPHUdkA66I18CWobqxN4L6I
z2kNG3m49amJ+rmv4CrgTxT0HxyQFoays+uBc8HM6bsGBHcg8mU3gqVNWy0gmu2R
yIt69kePTc/ZONk9I+Pd0NoPM+U3S0I5Zq0YZ+R0BvqVomb4LnIkl995qB8UdxN0
8f+uiqKN1LuCFAob9q6voxqTrPp3D7AUMnErCGECAwEAAaNTMFEwHQYDVR0OBBYE
FK94lrzhG1OY2n70KwYQ0a1vPswDMB8GA1UdIwQYMBaAFK94lrzhG1OY2n70KwYQ
0a1vPswDMA8GA1UdEwEB/wQFMAMBAf8wDQYJKoZIhvcNAQELBQADggIBACzSy7WY
zCG7yRA8Io19xxjSq2gzLh/r/vcT1bC2FQ8e1DMLjBC4hKGN5bwqcg3Sw0xRkMPU
pCNWnjG2SVFsAmkyW/F6Qj585rKBw+5SXSuMmzk0SMPa3GaAtiJNym4iwNarK5JC
59KV1UOODs2NJAWlMpEIf6vPfKyY5IkxuL1/pfA/Cj2PMDjPi+iq/cL6MVV5+zzs
5Q3VSHX99fdnzLl6fgGPYs9sepNhdi+L0hghyrXvwFD8iYUMx0XCFEWhUoinj0P2
8fOoyCxwFHDQamNNBxxPhZG5ZBe1C7udDpltwKEaQN+cGF6tL/E5IEoWn3E2rpnG
9sbkr7unejgpqRgWLGnRCyaJnkv0cN47HG3soS8123f5FXEuzIm+8ZRR9jn/P3KJ
v8PqlN0RB4CIAC6alvJnE4GvbXrw3vUgJJ5TVNPFp/kVo89BzlfPNvp3lyb5RyPy
mO1Y3oqMGuJW+1pPZVecvG2jADrUJ+IY8mWw3jLSJN1mod/P4soShXH7POunSNj4
3W2e3Yhc/PFjbMAzU55L5SB//1oZXIZ3vHWiE2V1ghBMVihh3DfarANP3zunI79b
E5F1e6XUa+xso0hI4R/KuYnXT3Fxy4fsdcdsK7gdSj4wDHjGgoxEI+B8/byd7vjx
gPiT2SGMpGU+pbJdwqppfSBpQKYXUQJhuvBl
-----END CERTIFICATE-----
