Certificate:
    Data:
        Version: 3 (0x2)
        Serial Number:
            62:97:b7:60:6a:92:82:aa:4e:12:99:a3:2b:3f:94:2b:7f:8a:5a:dd
        Signature Algorithm: sha256WithRSAEncryption
        Issuer: C=SV, ST=Santa Ana, O=Universidad de El Salvador, OU=TIUES, CN=San Maicol
        Validity
            Not Before: May 24 04:21:03 2020 GMT
            Not After : May 24 04:21:03 2021 GMT
        Subject: C=SV, ST=Santa Ana, L=Santa Ana, O=Paneschucos Inc, OU=www.paneschucos.occ.ues.edu.sv, CN=www.paneschucos.occ.ues.edu.sv
        Subject Public Key Info:
            Public Key Algorithm: rsaEncryption
                RSA Public-Key: (4096 bit)
                Modulus:
                    00:e1:26:14:1f:6a:b8:d6:b2:1d:53:18:d7:5d:d0:
                    b3:b3:c7:e0:26:97:4e:7b:a4:d9:af:e6:f0:15:aa:
                    d9:b7:d7:5a:0c:35:29:4d:88:81:f9:8e:9a:be:11:
                    66:9c:14:25:d5:97:da:0c:0e:4a:2a:73:83:0d:d7:
                    8a:15:6b:07:29:f4:71:4c:54:ad:11:83:65:7a:1f:
                    f5:50:2e:65:a9:e7:a7:e7:86:24:d3:b1:52:cf:9b:
                    7d:48:5f:7e:f8:eb:e2:bd:88:78:cf:84:ec:6a:7e:
                    07:40:22:7b:eb:86:4c:71:d2:8a:c0:c4:df:2b:f7:
                    d3:9f:6f:19:98:cd:2e:0b:03:27:4c:dc:60:71:59:
                    9b:82:cd:9d:55:61:ad:77:8d:06:9e:78:16:38:12:
                    9c:ee:a4:ce:1d:57:01:aa:4b:f1:df:16:02:d7:4b:
                    0e:57:a5:b3:cf:0e:63:59:90:cc:eb:45:b6:32:27:
                    4f:0c:0f:2d:4a:7e:bc:42:00:4b:42:f0:ed:bd:c4:
                    2f:0e:a4:50:6e:de:13:a7:ca:8d:bd:b8:b0:0d:48:
                    2b:77:56:44:89:cd:21:0a:72:f0:ca:97:ec:c7:9d:
                    23:6e:d0:3a:80:c1:76:2a:29:56:d0:6d:6e:59:ef:
                    21:2b:c1:c7:c1:7a:85:9b:85:9c:2d:7a:db:b9:3f:
                    4d:fb:0e:f5:a2:68:21:1d:35:e4:5f:f6:df:62:ba:
                    26:3b:2d:14:28:9e:fc:5c:23:9a:f7:c0:ad:63:6c:
                    f9:e1:3b:a9:e3:44:b8:f7:b8:88:f3:4d:93:71:ab:
                    3b:33:9e:5d:11:e1:a5:b8:fd:52:ff:8b:0c:02:82:
                    da:67:95:8a:ed:ed:86:fa:cf:f3:62:16:c1:f3:1a:
                    76:10:19:b1:da:01:d0:a6:56:5b:92:80:f7:8a:5b:
                    15:e9:ce:39:0c:d7:e7:e4:57:50:df:16:2f:c7:b2:
                    5c:08:89:e7:dc:3e:48:50:3e:d6:d4:58:81:48:9a:
                    8c:ba:4b:36:f8:5d:b4:1a:22:6d:61:73:53:40:1c:
                    a0:bb:8b:41:bf:9e:31:93:fb:c8:85:6a:89:dc:0d:
                    1c:97:b1:d9:d4:dd:a9:bf:22:80:26:2d:bb:89:9b:
                    90:ad:3d:7d:85:a9:82:6e:a9:99:13:44:fe:8f:16:
                    4c:89:aa:44:ca:9b:29:4b:2f:00:74:4a:cf:4b:09:
                    34:b5:8c:04:28:9f:3c:02:79:b0:59:47:64:6e:94:
                    48:7f:68:86:8b:fc:35:f0:5d:be:5a:61:4e:02:e3:
                    81:87:ab:0a:f5:6b:42:ff:03:7a:30:0e:7e:b1:54:
                    59:20:3a:ec:13:d9:2b:82:1e:09:69:07:9f:e6:98:
                    da:46:77
                Exponent: 65537 (0x10001)
        X509v3 extensions:
            X509v3 Basic Constraints: 
                CA:FALSE
            Netscape Comment: 
                OpenSSL Generated Certificate
            X509v3 Subject Key Identifier: 
                CF:50:20:A1:34:8A:29:32:F5:D4:B6:7F:66:AB:CE:08:6E:2C:64:96
            X509v3 Authority Key Identifier: 
                keyid:AF:78:96:BC:E1:1B:53:98:DA:7E:F4:2B:06:10:D1:AD:6F:3E:CC:03

    Signature Algorithm: sha256WithRSAEncryption
         90:34:08:2e:72:3d:9a:9e:3e:55:df:eb:2f:c0:99:a8:da:44:
         e5:66:6b:0d:bf:0f:e1:54:14:57:57:cf:4f:fb:5d:43:22:c7:
         dc:7b:20:8f:c1:ad:59:59:f0:36:c6:22:e0:6d:f9:9f:89:85:
         e0:1d:65:60:0e:89:8d:ae:be:58:ed:09:ab:f8:cd:3a:8a:14:
         cf:00:12:f7:dc:f9:01:ab:59:12:b1:52:02:84:09:b3:22:4d:
         48:10:53:26:59:1f:e8:a8:16:89:40:4d:47:54:67:06:ed:32:
         fa:75:8e:2f:e7:7f:2d:30:9a:a6:b0:ba:3a:51:c5:d9:4b:36:
         05:70:45:06:c4:57:f1:39:11:b1:d4:51:31:51:10:cc:2c:1c:
         ef:b4:0a:7b:4b:01:f1:85:ea:10:15:cb:95:8c:05:64:e0:aa:
         ba:11:ad:27:a2:b9:a5:e5:fd:19:0a:df:6d:45:a1:97:94:b6:
         71:97:b7:d4:d0:38:99:a2:4d:5f:ee:d0:46:4e:3c:4b:11:63:
         0a:af:cc:70:59:26:e6:ac:6f:d1:74:60:a6:f0:79:7d:5f:03:
         b1:d1:ff:0c:17:5e:17:ce:8e:a6:bf:e5:c9:10:66:e9:63:e6:
         10:2f:17:2c:b0:b5:28:f3:af:d9:22:c0:41:b9:b7:aa:86:6f:
         50:df:13:32:c6:f8:46:98:d0:75:02:84:57:61:34:1f:83:bf:
         a2:c2:0b:0d:9b:d2:ac:8a:ae:6c:38:2e:48:76:6f:a7:21:31:
         e7:14:c4:5d:26:b3:e9:2f:0a:0c:1a:2c:d9:55:4c:77:af:8f:
         34:b6:9f:a5:ac:ec:52:82:5b:97:1d:59:06:7b:83:06:ae:04:
         2e:73:6f:bf:d6:e2:42:35:12:c2:77:87:04:e2:6d:0a:22:e0:
         53:49:ce:fb:69:30:ef:68:c7:03:ed:f2:3d:11:41:84:7c:d1:
         78:d7:d6:56:86:38:2a:18:e4:94:62:d1:8b:be:90:bd:2d:fd:
         48:b3:b5:55:9f:80:ad:6b:36:84:7b:d5:11:11:46:fd:ea:0b:
         5e:7e:2f:60:57:33:45:df:38:f8:0c:aa:00:c1:cf:29:7d:46:
         8f:13:f8:5f:15:36:70:2c:1b:d2:d0:dc:4b:75:47:ad:d5:8f:
         bc:2d:c6:84:db:6e:b3:ff:e0:b6:38:5d:15:52:5c:2d:58:f5:
         22:ed:1a:8f:d1:28:48:ad:96:04:9f:65:28:a5:2f:47:ca:76:
         07:49:1c:72:e3:44:ee:01:76:35:b7:29:68:3c:bb:cd:dd:2c:
         4e:4b:0e:1d:e6:34:0b:8c:45:25:c2:9a:85:ee:60:86:7d:ac:
         fc:f9:7d:57:86:48:fb:2c
-----BEGIN CERTIFICATE-----
MIIGFjCCA/6gAwIBAgIUYpe3YGqSgqpOEpmjKz+UK3+KWt0wDQYJKoZIhvcNAQEL
BQAwazELMAkGA1UEBhMCU1YxEjAQBgNVBAgMCVNhbnRhIEFuYTEjMCEGA1UECgwa
VW5pdmVyc2lkYWQgZGUgRWwgU2FsdmFkb3IxDjAMBgNVBAsMBVRJVUVTMRMwEQYD
VQQDDApTYW4gTWFpY29sMB4XDTIwMDUyNDA0MjEwM1oXDTIxMDUyNDA0MjEwM1ow
gaExCzAJBgNVBAYTAlNWMRIwEAYDVQQIDAlTYW50YSBBbmExEjAQBgNVBAcMCVNh
bnRhIEFuYTEYMBYGA1UECgwPUGFuZXNjaHVjb3MgSW5jMScwJQYDVQQLDB53d3cu
cGFuZXNjaHVjb3Mub2NjLnVlcy5lZHUuc3YxJzAlBgNVBAMMHnd3dy5wYW5lc2No
dWNvcy5vY2MudWVzLmVkdS5zdjCCAiIwDQYJKoZIhvcNAQEBBQADggIPADCCAgoC
ggIBAOEmFB9quNayHVMY113Qs7PH4CaXTnuk2a/m8BWq2bfXWgw1KU2IgfmOmr4R
ZpwUJdWX2gwOSipzgw3XihVrByn0cUxUrRGDZXof9VAuZannp+eGJNOxUs+bfUhf
fvjr4r2IeM+E7Gp+B0Aie+uGTHHSisDE3yv3059vGZjNLgsDJ0zcYHFZm4LNnVVh
rXeNBp54FjgSnO6kzh1XAapL8d8WAtdLDlels88OY1mQzOtFtjInTwwPLUp+vEIA
S0Lw7b3ELw6kUG7eE6fKjb24sA1IK3dWRInNIQpy8MqX7MedI27QOoDBdiopVtBt
blnvISvBx8F6hZuFnC1627k/TfsO9aJoIR015F/232K6JjstFCie/FwjmvfArWNs
+eE7qeNEuPe4iPNNk3GrOzOeXRHhpbj9Uv+LDAKC2meViu3thvrP82IWwfMadhAZ
sdoB0KZWW5KA94pbFenOOQzX5+RXUN8WL8eyXAiJ59w+SFA+1tRYgUiajLpLNvhd
tBoibWFzU0AcoLuLQb+eMZP7yIVqidwNHJex2dTdqb8igCYtu4mbkK09fYWpgm6p
mRNE/o8WTImqRMqbKUsvAHRKz0sJNLWMBCifPAJ5sFlHZG6USH9ohov8NfBdvlph
TgLjgYerCvVrQv8DejAOfrFUWSA67BPZK4IeCWkHn+aY2kZ3AgMBAAGjezB5MAkG
A1UdEwQCMAAwLAYJYIZIAYb4QgENBB8WHU9wZW5TU0wgR2VuZXJhdGVkIENlcnRp
ZmljYXRlMB0GA1UdDgQWBBTPUCChNIopMvXUtn9mq84IbixkljAfBgNVHSMEGDAW
gBSveJa84RtTmNp+9CsGENGtbz7MAzANBgkqhkiG9w0BAQsFAAOCAgEAkDQILnI9
mp4+Vd/rL8CZqNpE5WZrDb8P4VQUV1fPT/tdQyLH3Hsgj8GtWVnwNsYi4G35n4mF
4B1lYA6Jja6+WO0Jq/jNOooUzwAS99z5AatZErFSAoQJsyJNSBBTJlkf6KgWiUBN
R1RnBu0y+nWOL+d/LTCaprC6OlHF2Us2BXBFBsRX8TkRsdRRMVEQzCwc77QKe0sB
8YXqEBXLlYwFZOCquhGtJ6K5peX9GQrfbUWhl5S2cZe31NA4maJNX+7QRk48SxFj
Cq/McFkm5qxv0XRgpvB5fV8DsdH/DBdeF86Opr/lyRBm6WPmEC8XLLC1KPOv2SLA
Qbm3qoZvUN8TMsb4RpjQdQKEV2E0H4O/osILDZvSrIqubDguSHZvpyEx5xTEXSaz
6S8KDBos2VVMd6+PNLafpazsUoJblx1ZBnuDBq4ELnNvv9biQjUSwneHBOJtCiLg
U0nO+2kw72jHA+3yPRFBhHzReNfWVoY4KhjklGLRi76QvS39SLO1VZ+ArWs2hHvV
ERFG/eoLXn4vYFczRd84+AyqAMHPKX1GjxP4XxU2cCwb0tDcS3VHrdWPvC3GhNtu
s//gtjhdFVJcLVj1Iu0aj9EoSK2WBJ9lKKUvR8p2B0kccuNE7gF2NbcpaDy7zd0s
TksOHeY0C4xFJcKahe5ghn2s/Pl9V4ZI+yw=
-----END CERTIFICATE-----
