Certificate:
    Data:
        Version: 3 (0x2)
        Serial Number:
            62:97:b7:60:6a:92:82:aa:4e:12:99:a3:2b:3f:94:2b:7f:8a:5a:dc
        Signature Algorithm: sha256WithRSAEncryption
        Issuer: C=SV, ST=Santa Ana, O=Universidad de El Salvador, OU=TIUES, CN=San Maicol
        Validity
            Not Before: Mar  9 21:31:11 2020 GMT
            Not After : Mar  9 21:31:11 2021 GMT
        Subject: C=SV, ST=San Sivar, L=San Sivar, O=Chilate Inc., OU=www.chilate.occ.ues.edu.sv, CN=www.chilate.occ.ues.edu.sv
        Subject Public Key Info:
            Public Key Algorithm: rsaEncryption
                RSA Public-Key: (4096 bit)
                Modulus:
                    00:af:48:bb:fa:2d:7c:44:ed:22:39:3e:80:11:11:
                    d3:f3:f3:ca:f1:3a:c8:21:d0:48:b4:73:ef:8c:b3:
                    f5:20:d2:71:50:a0:3b:96:90:ce:83:5e:8a:19:80:
                    a5:63:93:0e:15:cb:e4:c4:29:80:25:3b:fc:fc:10:
                    57:d5:61:8c:34:2e:47:49:42:7f:87:b7:7e:61:4f:
                    ea:e0:43:1f:d5:38:61:0d:fa:3e:ce:88:ef:cb:95:
                    72:0e:fa:a2:f4:a8:7d:03:c9:0f:68:f7:62:f3:d8:
                    3c:96:5f:88:06:e7:85:4b:9c:b7:6e:60:2e:d6:e1:
                    cb:b1:42:8b:39:f5:45:93:3c:3a:a4:e5:ee:ac:af:
                    8c:f5:9e:c7:02:d9:8a:6f:c4:ca:c6:a2:63:01:16:
                    c1:c1:19:0b:33:ae:64:a0:27:d1:34:56:51:3c:28:
                    19:f7:81:42:b0:a6:87:36:1b:0e:19:37:a0:bb:2b:
                    71:02:00:01:b6:b7:91:c1:e6:15:e7:24:76:dd:58:
                    0c:f6:7d:3a:8b:0c:5f:29:44:f6:a9:2e:12:47:d3:
                    48:40:e4:f4:a4:af:84:ba:59:14:db:8d:1c:41:15:
                    cd:4a:37:30:95:41:a9:34:14:ac:32:cf:2f:9c:63:
                    05:20:62:b4:e7:ec:37:d5:a3:24:b9:3d:b1:f4:1b:
                    62:7f:a5:63:3c:12:4f:8e:f9:87:92:e5:fc:94:1a:
                    7f:c1:3b:23:4c:9f:e8:c5:1c:79:4e:89:76:2e:ca:
                    ad:03:3c:36:68:ef:2f:73:3e:7a:7d:35:94:f9:dc:
                    bd:d4:f0:47:ca:cb:4d:37:2b:ef:9c:11:bc:c5:98:
                    a1:e3:51:6e:3c:c8:64:5f:35:01:84:52:7c:2b:f2:
                    30:3c:f8:5d:b6:1d:27:b2:1c:a2:a0:2d:cf:83:a6:
                    1d:e7:af:27:a5:1c:38:40:90:de:86:4e:f5:58:74:
                    52:3f:9d:11:73:76:7f:5d:10:51:86:fa:e3:85:db:
                    45:01:89:3b:eb:c2:c8:34:e2:43:08:42:b5:9c:1e:
                    ef:37:80:4b:dc:10:4d:8c:85:b7:c2:c3:fd:a7:bc:
                    37:58:fa:a9:cf:eb:22:19:57:4a:6b:1b:31:ef:7a:
                    b1:d4:40:d1:83:89:1d:75:20:64:6d:f9:42:1e:e8:
                    cb:3f:a8:a4:9b:47:93:b5:0f:3a:0a:c4:7b:fd:20:
                    4e:87:c1:e9:96:32:f1:f5:8f:00:85:75:c6:aa:80:
                    a0:09:65:e5:92:f4:58:bf:c6:d3:a3:01:dd:a6:6a:
                    0e:06:cb:3c:0a:4b:1d:37:b3:3a:a8:49:49:08:36:
                    63:41:29:5f:ba:b7:3c:76:84:8e:38:1f:4f:da:d3:
                    01:20:47
                Exponent: 65537 (0x10001)
        X509v3 extensions:
            X509v3 Basic Constraints: 
                CA:FALSE
            Netscape Comment: 
                OpenSSL Generated Certificate
            X509v3 Subject Key Identifier: 
                22:EF:34:37:44:D3:5A:C8:1A:89:E1:CB:54:A3:26:DE:F0:0A:5C:C6
            X509v3 Authority Key Identifier: 
                keyid:AF:78:96:BC:E1:1B:53:98:DA:7E:F4:2B:06:10:D1:AD:6F:3E:CC:03

    Signature Algorithm: sha256WithRSAEncryption
         b0:4b:b8:92:97:ea:66:21:09:d3:33:92:cd:24:9a:13:cc:44:
         f9:84:de:b0:0e:3c:e1:b6:1e:50:86:4e:ce:47:e2:65:3b:46:
         0c:ea:a6:55:da:4f:c0:79:57:48:b2:b2:f3:bc:28:30:b8:92:
         3b:f0:3f:9b:9c:45:d7:aa:0b:78:0f:f3:ff:9b:2d:ec:6a:ca:
         8d:cd:a7:68:39:83:92:29:80:e8:9d:71:91:b8:6e:ea:3f:e2:
         70:19:26:7a:58:63:01:91:4a:61:79:af:39:bc:e0:2d:86:16:
         d6:3e:fb:dd:5b:3c:0b:83:bd:dd:04:d6:f9:49:69:2d:8f:98:
         80:26:7b:bb:c0:27:aa:b1:0e:bd:01:52:b7:79:01:c3:a6:11:
         7d:1b:92:87:19:5e:9d:0f:d3:43:61:10:7b:f0:57:d4:5a:88:
         5d:de:c9:ce:86:3e:89:9a:18:35:d2:c3:e5:dd:dc:5c:9d:d6:
         4d:de:ed:16:d2:b8:75:3e:32:f9:64:26:1d:e6:6b:c0:83:7a:
         97:b3:e3:05:12:e8:a2:c9:b7:a3:4f:93:eb:86:38:ca:25:af:
         be:3c:e2:a7:e3:64:c9:f4:9c:83:a3:8a:d7:35:ba:20:30:ee:
         56:80:8e:e5:c7:47:7e:40:24:e0:e3:6d:7f:18:7d:50:26:59:
         0f:bd:ef:32:7d:2f:bd:c4:66:43:2b:e6:7b:23:e0:79:d6:40:
         6a:d7:81:b4:b4:c0:a9:f6:c7:2d:d6:31:42:ef:e9:ef:cd:6e:
         7b:ec:a0:8f:ab:39:92:62:71:6a:5a:89:ee:55:e6:14:c2:2a:
         43:b8:ba:72:95:b9:02:64:91:3c:7a:e3:7e:a3:ad:54:ea:20:
         83:fc:48:4a:71:2a:b0:ea:4e:64:4d:b4:45:55:e5:b8:ce:5f:
         fb:99:2f:a4:3a:d5:89:2e:0b:10:eb:69:af:0a:74:a5:b4:85:
         66:54:24:46:94:31:56:86:24:a1:52:c3:a9:f0:39:1e:71:4a:
         36:49:47:55:d3:de:2a:14:1b:9f:20:0a:f3:a1:47:62:c6:86:
         69:15:70:ca:fd:cb:34:cd:d7:19:65:ed:2d:79:59:e2:31:bc:
         52:be:aa:10:e2:9b:c4:68:13:a4:92:31:82:e7:67:bc:bd:7d:
         69:86:30:99:ad:fc:6b:2c:c7:83:84:fe:fc:d0:d4:9c:8c:9f:
         c5:bb:24:f1:67:24:1a:e6:84:ea:3b:72:f0:88:14:44:9f:a7:
         13:9b:0f:4d:7c:c7:8b:3c:57:9f:17:42:2b:b0:2b:fb:d1:ed:
         e3:c4:d5:29:17:af:55:2c:95:ad:d8:9a:ac:b9:18:69:f8:24:
         c8:18:ec:ab:87:ba:54:af
-----BEGIN CERTIFICATE-----
MIIGCzCCA/OgAwIBAgIUYpe3YGqSgqpOEpmjKz+UK3+KWtwwDQYJKoZIhvcNAQEL
BQAwazELMAkGA1UEBhMCU1YxEjAQBgNVBAgMCVNhbnRhIEFuYTEjMCEGA1UECgwa
VW5pdmVyc2lkYWQgZGUgRWwgU2FsdmFkb3IxDjAMBgNVBAsMBVRJVUVTMRMwEQYD
VQQDDApTYW4gTWFpY29sMB4XDTIwMDMwOTIxMzExMVoXDTIxMDMwOTIxMzExMVow
gZYxCzAJBgNVBAYTAlNWMRIwEAYDVQQIDAlTYW4gU2l2YXIxEjAQBgNVBAcMCVNh
biBTaXZhcjEVMBMGA1UECgwMQ2hpbGF0ZSBJbmMuMSMwIQYDVQQLDBp3d3cuY2hp
bGF0ZS5vY2MudWVzLmVkdS5zdjEjMCEGA1UEAwwad3d3LmNoaWxhdGUub2NjLnVl
cy5lZHUuc3YwggIiMA0GCSqGSIb3DQEBAQUAA4ICDwAwggIKAoICAQCvSLv6LXxE
7SI5PoAREdPz88rxOsgh0Ei0c++Ms/Ug0nFQoDuWkM6DXooZgKVjkw4Vy+TEKYAl
O/z8EFfVYYw0LkdJQn+Ht35hT+rgQx/VOGEN+j7OiO/LlXIO+qL0qH0DyQ9o92Lz
2DyWX4gG54VLnLduYC7W4cuxQos59UWTPDqk5e6sr4z1nscC2YpvxMrGomMBFsHB
GQszrmSgJ9E0VlE8KBn3gUKwpoc2Gw4ZN6C7K3ECAAG2t5HB5hXnJHbdWAz2fTqL
DF8pRPapLhJH00hA5PSkr4S6WRTbjRxBFc1KNzCVQak0FKwyzy+cYwUgYrTn7DfV
oyS5PbH0G2J/pWM8Ek+O+YeS5fyUGn/BOyNMn+jFHHlOiXYuyq0DPDZo7y9zPnp9
NZT53L3U8EfKy003K++cEbzFmKHjUW48yGRfNQGEUnwr8jA8+F22HSeyHKKgLc+D
ph3nryelHDhAkN6GTvVYdFI/nRFzdn9dEFGG+uOF20UBiTvrwsg04kMIQrWcHu83
gEvcEE2MhbfCw/2nvDdY+qnP6yIZV0prGzHverHUQNGDiR11IGRt+UIe6Ms/qKSb
R5O1DzoKxHv9IE6HwemWMvH1jwCFdcaqgKAJZeWS9Fi/xtOjAd2mag4GyzwKSx03
szqoSUkINmNBKV+6tzx2hI44H0/a0wEgRwIDAQABo3sweTAJBgNVHRMEAjAAMCwG
CWCGSAGG+EIBDQQfFh1PcGVuU1NMIEdlbmVyYXRlZCBDZXJ0aWZpY2F0ZTAdBgNV
HQ4EFgQUIu80N0TTWsgaieHLVKMm3vAKXMYwHwYDVR0jBBgwFoAUr3iWvOEbU5ja
fvQrBhDRrW8+zAMwDQYJKoZIhvcNAQELBQADggIBALBLuJKX6mYhCdMzks0kmhPM
RPmE3rAOPOG2HlCGTs5H4mU7RgzqplXaT8B5V0iysvO8KDC4kjvwP5ucRdeqC3gP
8/+bLexqyo3Np2g5g5IpgOidcZG4buo/4nAZJnpYYwGRSmF5rzm84C2GFtY++91b
PAuDvd0E1vlJaS2PmIAme7vAJ6qxDr0BUrd5AcOmEX0bkocZXp0P00NhEHvwV9Ra
iF3eyc6GPomaGDXSw+Xd3Fyd1k3e7RbSuHU+MvlkJh3ma8CDepez4wUS6KLJt6NP
k+uGOMolr7484qfjZMn0nIOjitc1uiAw7laAjuXHR35AJODjbX8YfVAmWQ+97zJ9
L73EZkMr5nsj4HnWQGrXgbS0wKn2xy3WMULv6e/NbnvsoI+rOZJicWpaie5V5hTC
KkO4unKVuQJkkTx6436jrVTqIIP8SEpxKrDqTmRNtEVV5bjOX/uZL6Q61YkuCxDr
aa8KdKW0hWZUJEaUMVaGJKFSw6nwOR5xSjZJR1XT3ioUG58gCvOhR2LGhmkVcMr9
yzTN1xll7S15WeIxvFK+qhDim8RoE6SSMYLnZ7y9fWmGMJmt/Gssx4OE/vzQ1JyM
n8W7JPFnJBrmhOo7cvCIFESfpxObD018x4s8V58XQiuwK/vR7ePE1SkXr1Usla3Y
mqy5GGn4JMgY7KuHulSv
-----END CERTIFICATE-----
